; Function Attrs: mustprogress nofree norecurse nosync nounwind willreturn memory(argmem: read) uwtable
define hidden i32 @_ZN3sat6clause6approxEjPKNS_7literalE(i32 noundef %num, ptr nocapture noundef readonly %lits) local_unnamed_addr #5 align 2 {
entry:
  %cmp4.not = icmp eq i32 %num, 0
  br i1 %cmp4.not, label %for.end, label %for.body.preheader

for.body.preheader:                               ; preds = %entry
  %wide.trip.count = zext i32 %num to i64
  br label %for.body

for.body:                                         ; preds = %for.body.preheader, %for.body
  %indvars.iv = phi i64 [ 0, %for.body.preheader ], [ %indvars.iv.next, %for.body ]
  %retval.sroa.0.05 = phi i32 [ 0, %for.body.preheader ], [ %or.i, %for.body ]
  %arrayidx = getelementptr inbounds %"class.sat::literal", ptr %lits, i64 %indvars.iv
  %0 = load i32, ptr %arrayidx, align 4
  %shr.i = lshr i32 %0, 1
  %and.i.i.i = and i32 %shr.i, 31
  %shl.i.i.i = shl nuw i32 1, %and.i.i.i
  %or.i = or i32 %shl.i.i.i, %retval.sroa.0.05
  %indvars.iv.next = add nuw nsw i64 %indvars.iv, 1
  %exitcond.not = icmp eq i64 %indvars.iv.next, %wide.trip.count
  br i1 %exitcond.not, label %for.end, label %for.body, !llvm.loop !4

for.end:                                          ; preds = %for.body, %entry
  %retval.sroa.0.0.lcssa = phi i32 [ 0, %entry ], [ %or.i, %for.body ]
  ret i32 %retval.sroa.0.0.lcssa
}